target datalayout = "e-m:e-p270:32:32-p271:32:32-p272:64:64-i64:64-i128:128-f80:128-n8:16:32:64-S128"
target triple = "x86_64-pc-linux-gnu"

@hf_aim_icbm_cookie = internal global i32 0, align 4
@hf_aim_message_channel_id = internal global i32 0, align 4

; Function Attrs: null_pointer_is_valid sspstrong uwtable
define internal i32 @dissect_aim_tlv_sequence(ptr noundef %0, ptr noundef %1, i32 noundef %2, ptr noundef %3, ptr noundef %4) #0 {
  %6 = alloca ptr, align 8
  %7 = alloca ptr, align 8
  %8 = alloca i32, align 4
  %9 = alloca ptr, align 8
  %10 = alloca ptr, align 8
  store ptr %0, ptr %6, align 8
  store ptr %1, ptr %7, align 8
  store i32 %2, ptr %8, align 4
  store ptr %3, ptr %9, align 8
  store ptr %4, ptr %10, align 8
  br label %11

11:                                               ; preds = %16, %5
  %12 = load ptr, ptr %6, align 8
  %13 = load i32, ptr %8, align 4
  %14 = call i32 @tvb_reported_length_remaining(ptr noundef %12, i32 noundef %13)
  %15 = icmp sgt i32 %14, 0
  br i1 %15, label %16, label %23

16:                                               ; preds = %11
  %17 = load ptr, ptr %6, align 8
  %18 = load ptr, ptr %7, align 8
  %19 = load i32, ptr %8, align 4
  %20 = load ptr, ptr %9, align 8
  %21 = load ptr, ptr %10, align 8
  %22 = call i32 @dissect_aim_tlv(ptr noundef %17, ptr noundef %18, i32 noundef %19, ptr noundef %20, ptr noundef %21)
  store i32 %22, ptr %8, align 4
  br label %11, !llvm.loop !11

23:                                               ; preds = %11
  %24 = load i32, ptr %8, align 4
  ret i32 %24
}

; Function Attrs: null_pointer_is_valid sspstrong uwtable
define internal i32 @dissect_aim_msg_incoming(ptr noundef %0, ptr noundef %1, ptr noundef %2) #0 {
  %4 = alloca i32, align 4
  %5 = alloca ptr, align 8
  %6 = alloca ptr, align 8
  %7 = alloca ptr, align 8
  %8 = alloca i32, align 4
  %9 = alloca ptr, align 8
  %10 = alloca i16, align 2
  %11 = alloca i32, align 4
  store ptr %0, ptr %5, align 8
  store ptr %1, ptr %6, align 8
  store ptr %2, ptr %7, align 8
  call void @llvm.lifetime.start.p0(i64 4, ptr %8) #13
  store i32 0, ptr %8, align 4
  call void @llvm.lifetime.start.p0(i64 8, ptr %9) #13
  call void @llvm.lifetime.start.p0(i64 2, ptr %10) #13
  %12 = load ptr, ptr %7, align 8
  %13 = load i32, ptr @hf_aim_icbm_cookie, align 4
  %14 = load ptr, ptr %5, align 8
  %15 = load i32, ptr %8, align 4
  %16 = call ptr @proto_tree_add_item(ptr noundef %12, i32 noundef %13, ptr noundef %14, i32 noundef %15, i32 noundef 8, i32 noundef 0)
  %17 = load i32, ptr %8, align 4
  %18 = add i32 %17, 8
  store i32 %18, ptr %8, align 4
  %19 = load ptr, ptr %7, align 8
  %20 = load i32, ptr @hf_aim_message_channel_id, align 4
  %21 = load ptr, ptr %5, align 8
  %22 = load i32, ptr %8, align 4
  %23 = call ptr @proto_tree_add_item(ptr noundef %19, i32 noundef %20, ptr noundef %21, i32 noundef %22, i32 noundef 2, i32 noundef 0)
  %24 = load ptr, ptr %5, align 8
  %25 = load i32, ptr %8, align 4
  %26 = call zeroext i16 @tvb_get_ntohs(ptr noundef %24, i32 noundef %25)
  store i16 %26, ptr %10, align 2
  %27 = load i32, ptr %8, align 4
  %28 = add i32 %27, 2
  store i32 %28, ptr %8, align 4
  %29 = load ptr, ptr %5, align 8
  %30 = load ptr, ptr %6, align 8
  %31 = load i32, ptr %8, align 4
  %32 = load ptr, ptr %7, align 8
  %33 = call i32 @dissect_aim_userinfo(ptr noundef %29, ptr noundef %30, i32 noundef %31, ptr noundef %32)
  store i32 %33, ptr %8, align 4
  %34 = load i16, ptr %10, align 2
  %35 = zext i16 %34 to i32
  switch i32 %35, label %38 [
    i32 1, label %36
    i32 2, label %37
  ]

36:                                               ; preds = %3
  store ptr @aim_messaging_incoming_ch1_tlvs, ptr %9, align 8
  br label %40

37:                                               ; preds = %3
  store ptr @aim_messaging_incoming_ch2_tlvs, ptr %9, align 8
  br label %40

38:                                               ; preds = %3
  %39 = load i32, ptr %8, align 4
  store i32 %39, ptr %4, align 4
  store i32 1, ptr %11, align 4
  br label %47

40:                                               ; preds = %37, %36
  %41 = load ptr, ptr %5, align 8
  %42 = load ptr, ptr %6, align 8
  %43 = load i32, ptr %8, align 4
  %44 = load ptr, ptr %7, align 8
  %45 = load ptr, ptr %9, align 8
  %46 = call i32 @dissect_aim_tlv_sequence(ptr noundef %41, ptr noundef %42, i32 noundef %43, ptr noundef %44, ptr noundef %45)
  store i32 %46, ptr %4, align 4
  store i32 1, ptr %11, align 4
  br label %47

47:                                               ; preds = %40, %38
  call void @llvm.lifetime.end.p0(i64 2, ptr %10) #13
  call void @llvm.lifetime.end.p0(i64 8, ptr %9) #13
  call void @llvm.lifetime.end.p0(i64 4, ptr %8) #13
  %48 = load i32, ptr %4, align 4
  ret i32 %48
}