; Function Attrs: null_pointer_is_valid sspstrong uwtable
define internal i32 @dissect_aim_msg_incoming(ptr noundef %0, ptr noundef %1, ptr noundef %2) #0 {
  %4 = load i32, ptr @hf_aim_icbm_cookie, align 4
  %5 = tail call ptr @proto_tree_add_item(ptr noundef %2, i32 noundef %4, ptr noundef %0, i32 noundef 0, i32 noundef 8, i32 noundef 0)
  %6 = load i32, ptr @hf_aim_message_channel_id, align 4
  %7 = tail call ptr @proto_tree_add_item(ptr noundef %2, i32 noundef %6, ptr noundef %0, i32 noundef 8, i32 noundef 2, i32 noundef 0)
  %8 = tail call zeroext i16 @tvb_get_ntohs(ptr noundef %0, i32 noundef 8)
  %9 = tail call fastcc i32 @dissect_aim_userinfo(ptr noundef %0, ptr noundef %1, i32 noundef 10, ptr noundef %2)
  switch i16 %8, label %dissect_aim_tlv_sequence.exit [
    i16 1, label %.split23
    i16 2, label %.split
  ]

.split23:                                         ; preds = %3
  %10 = tail call i32 @tvb_reported_length_remaining(ptr noundef %0, i32 noundef %9)
  %11 = icmp sgt i32 %10, 0
  br i1 %11, label %.lr.ph.i, label %dissect_aim_tlv_sequence.exit

.lr.ph.i:                                         ; preds = %.split23, %.lr.ph.i
  %.07.i = phi i32 [ %12, %.lr.ph.i ], [ %9, %.split23 ]
  %12 = tail call fastcc i32 @dissect_aim_tlv(ptr noundef %0, ptr noundef %1, i32 noundef %.07.i, ptr noundef %2, ptr noundef nonnull @aim_messaging_incoming_ch1_tlvs)
  %13 = tail call i32 @tvb_reported_length_remaining(ptr noundef %0, i32 noundef %12)
  %14 = icmp sgt i32 %13, 0
  br i1 %14, label %.lr.ph.i, label %dissect_aim_tlv_sequence.exit, !llvm.loop !8

.split:                                           ; preds = %3
  %15 = tail call i32 @tvb_reported_length_remaining(ptr noundef %0, i32 noundef %9)
  %16 = icmp sgt i32 %15, 0
  br i1 %16, label %.lr.ph.i25, label %dissect_aim_tlv_sequence.exit

.lr.ph.i25:                                       ; preds = %.split, %.lr.ph.i25
  %.07.i26 = phi i32 [ %17, %.lr.ph.i25 ], [ %9, %.split ]
  %17 = tail call fastcc i32 @dissect_aim_tlv(ptr noundef %0, ptr noundef %1, i32 noundef %.07.i26, ptr noundef %2, ptr noundef nonnull @aim_messaging_incoming_ch2_tlvs)
  %18 = tail call i32 @tvb_reported_length_remaining(ptr noundef %0, i32 noundef %17)
  %19 = icmp sgt i32 %18, 0
  br i1 %19, label %.lr.ph.i25, label %dissect_aim_tlv_sequence.exit, !llvm.loop !8

dissect_aim_tlv_sequence.exit:                    ; preds = %.lr.ph.i25, %.lr.ph.i, %.split, %.split23, %3
  %.0 = phi i32 [ %9, %3 ], [ %9, %.split23 ], [ %9, %.split ], [ %12, %.lr.ph.i ], [ %17, %.lr.ph.i25 ]
  ret i32 %.0
}